; Function Attrs: mustprogress uwtable
define hidden void @_ZN7nanogui6WindowC2EPNS_6WidgetERKNSt7__cxx1112basic_stringIcSt11char_traitsIcESaIcEEE(ptr noundef nonnull align 8 dereferenceable(186) %0, ptr noundef %1, ptr noundef nonnull align 8 dereferenceable(32) %2) unnamed_addr #0 align 2 personality ptr @__gxx_personality_v0 {
  tail call void @_ZN7nanogui6WidgetC2EPS0_(ptr noundef nonnull align 8 dereferenceable(140) %0, ptr noundef %1)
  store ptr getelementptr inbounds ({ [18 x ptr] }, ptr @_ZTVN7nanogui6WindowE, i64 0, i32 0, i64 2), ptr %0, align 8
  %4 = getelementptr inbounds i8, ptr %0, i64 144
  invoke void @_ZNSt7__cxx1112basic_stringIcSt11char_traitsIcESaIcEEC1ERKS4_(ptr noundef nonnull align 8 dereferenceable(32) %4, ptr noundef nonnull align 8 dereferenceable(32) %2)
          to label %5 unwind label %9

5:                                                ; preds = %3
  %6 = getelementptr inbounds i8, ptr %0, i64 176
  store ptr null, ptr %6, align 8
  %7 = getelementptr inbounds i8, ptr %0, i64 184
  store i8 0, ptr %7, align 8
  %8 = getelementptr inbounds i8, ptr %0, i64 185
  store i8 0, ptr %8, align 1
  ret void

9:                                                ; preds = %3
  %10 = landingpad { ptr, i32 }
          cleanup
  tail call void @_ZN7nanogui6WidgetD2Ev(ptr noundef nonnull align 8 dereferenceable(140) %0) #12
  resume { ptr, i32 } %10
}